#include <math.h>
#include <stdio.h>
#include <stdlib.h>
#include <string.h>
#include <iostream>
using namespace std;


int sum(int a,int i)
{
	int ret=1;
	for(;i<=sqrt((float)a);i++)
	{
		if(a%i==0)
		{
			ret+=sum(a/i,i);
		}
	}
	return ret;
}
int main()
{
	int t,a,j;
	cin>>t;
	
	for(j=0;j<t;j++)
	{
		cin>>a;
		cout<<sum(a,2)<<endl;
	}
	return 0;
}